; ModuleID = '16/1344.cpp'
source_filename = "16/1344.cpp"
target datalayout = "e-m:e-p270:32:32-p271:32:32-p272:64:64-i64:64-f80:128-n8:16:32:64-S128"
target triple = "x86_64-pc-linux-gnu"

%"class.std::ios_base::Init" = type { i8 }
%"class.std::basic_istream" = type { i32 (...)**, i64, %"class.std::basic_ios" }
%"class.std::basic_ios" = type { %"class.std::ios_base", %"class.std::basic_ostream"*, i8, i8, %"class.std::basic_streambuf"*, %"class.std::ctype"*, %"class.std::num_put"*, %"class.std::num_get"* }
%"class.std::ios_base" = type { i32 (...)**, i64, i64, i32, i32, i32, %"struct.std::ios_base::_Callback_list"*, %"struct.std::ios_base::_Words", [8 x %"struct.std::ios_base::_Words"], i32, %"struct.std::ios_base::_Words"*, %"class.std::locale" }
%"struct.std::ios_base::_Callback_list" = type { %"struct.std::ios_base::_Callback_list"*, void (i32, %"class.std::ios_base"*, i32)*, i32, i32 }
%"struct.std::ios_base::_Words" = type { i8*, i64 }
%"class.std::locale" = type { %"class.std::locale::_Impl"* }
%"class.std::locale::_Impl" = type { i32, %"class.std::locale::facet"**, i64, %"class.std::locale::facet"**, i8** }
%"class.std::locale::facet" = type <{ i32 (...)**, i32, [4 x i8] }>
%"class.std::basic_ostream" = type { i32 (...)**, %"class.std::basic_ios" }
%"class.std::basic_streambuf" = type { i32 (...)**, i8*, i8*, i8*, i8*, i8*, i8*, %"class.std::locale" }
%"class.std::ctype" = type <{ %"class.std::locale::facet.base", [4 x i8], %struct.__locale_struct*, i8, [7 x i8], i32*, i32*, i16*, i8, [256 x i8], [256 x i8], i8, [6 x i8] }>
%"class.std::locale::facet.base" = type <{ i32 (...)**, i32 }>
%struct.__locale_struct = type { [13 x %struct.__locale_data*], i16*, i32*, i32*, [13 x i8*] }
%struct.__locale_data = type opaque
%"class.std::num_put" = type { %"class.std::locale::facet.base", [4 x i8] }
%"class.std::num_get" = type { %"class.std::locale::facet.base", [4 x i8] }

@_ZStL8__ioinit = internal global %"class.std::ios_base::Init" zeroinitializer, align 1
@__dso_handle = external hidden global i8
@_ZSt3cin = external dso_local global %"class.std::basic_istream", align 8
@_ZSt4cout = external dso_local global %"class.std::basic_ostream", align 8
@llvm.global_ctors = appending global [1 x { i32, void ()*, i8* }] [{ i32, void ()*, i8* } { i32 65535, void ()* @_GLOBAL__sub_I_1344.cpp, i8* null }]

; Function Attrs: noinline uwtable
define internal void @__cxx_global_var_init() #0 section ".text.startup" {
  call void @_ZNSt8ios_base4InitC1Ev(%"class.std::ios_base::Init"* @_ZStL8__ioinit)
  %1 = call i32 @__cxa_atexit(void (i8*)* bitcast (void (%"class.std::ios_base::Init"*)* @_ZNSt8ios_base4InitD1Ev to void (i8*)*), i8* getelementptr inbounds (%"class.std::ios_base::Init", %"class.std::ios_base::Init"* @_ZStL8__ioinit, i32 0, i32 0), i8* @__dso_handle) #3
  ret void
}

declare dso_local void @_ZNSt8ios_base4InitC1Ev(%"class.std::ios_base::Init"*) unnamed_addr #1

; Function Attrs: nounwind
declare dso_local void @_ZNSt8ios_base4InitD1Ev(%"class.std::ios_base::Init"*) unnamed_addr #2

; Function Attrs: nounwind
declare dso_local i32 @__cxa_atexit(void (i8*)*, i8*, i8*) #3

; Function Attrs: noinline norecurse uwtable
define dso_local i32 @main() #4 {
  %1 = alloca i32, align 4
  %2 = alloca i32, align 4
  %3 = alloca [5 x i32], align 16
  store i32 0, i32* %1, align 4
  %4 = call dereferenceable(280) %"class.std::basic_istream"* @_ZNSirsERi(%"class.std::basic_istream"* @_ZSt3cin, i32* dereferenceable(4) %2)
  %5 = load i32, i32* %2, align 4
  %6 = srem i32 %5, 10
  %7 = getelementptr inbounds [5 x i32], [5 x i32]* %3, i64 0, i64 0
  store i32 %6, i32* %7, align 16
  %8 = load i32, i32* %2, align 4
  %9 = sdiv i32 %8, 10
  %10 = srem i32 %9, 10
  %11 = getelementptr inbounds [5 x i32], [5 x i32]* %3, i64 0, i64 1
  store i32 %10, i32* %11, align 4
  %12 = load i32, i32* %2, align 4
  %13 = sdiv i32 %12, 100
  %14 = srem i32 %13, 10
  %15 = getelementptr inbounds [5 x i32], [5 x i32]* %3, i64 0, i64 2
  store i32 %14, i32* %15, align 8
  %16 = load i32, i32* %2, align 4
  %17 = sdiv i32 %16, 1000
  %18 = srem i32 %17, 10
  %19 = getelementptr inbounds [5 x i32], [5 x i32]* %3, i64 0, i64 3
  store i32 %18, i32* %19, align 4
  %20 = load i32, i32* %2, align 4
  %21 = sdiv i32 %20, 10000
  %22 = srem i32 %21, 10
  %23 = getelementptr inbounds [5 x i32], [5 x i32]* %3, i64 0, i64 4
  store i32 %22, i32* %23, align 16
  %24 = load i32, i32* %2, align 4
  %25 = icmp slt i32 %24, 10
  br i1 %25, label %26, label %30

26:                                               ; preds = %0
  %27 = getelementptr inbounds [5 x i32], [5 x i32]* %3, i64 0, i64 0
  %28 = load i32, i32* %27, align 16
  %29 = call dereferenceable(272) %"class.std::basic_ostream"* @_ZNSolsEi(%"class.std::basic_ostream"* @_ZSt4cout, i32 %28)
  br label %97

30:                                               ; preds = %0
  %31 = load i32, i32* %2, align 4
  %32 = icmp slt i32 %31, 100
  br i1 %32, label %33, label %43

33:                                               ; preds = %30
  %34 = load i32, i32* %2, align 4
  %35 = icmp sge i32 %34, 10
  br i1 %35, label %36, label %43

36:                                               ; preds = %33
  %37 = getelementptr inbounds [5 x i32], [5 x i32]* %3, i64 0, i64 0
  %38 = load i32, i32* %37, align 16
  %39 = call dereferenceable(272) %"class.std::basic_ostream"* @_ZNSolsEi(%"class.std::basic_ostream"* @_ZSt4cout, i32 %38)
  %40 = getelementptr inbounds [5 x i32], [5 x i32]* %3, i64 0, i64 1
  %41 = load i32, i32* %40, align 4
  %42 = call dereferenceable(272) %"class.std::basic_ostream"* @_ZNSolsEi(%"class.std::basic_ostream"* %39, i32 %41)
  br label %96

43:                                               ; preds = %33, %30
  %44 = load i32, i32* %2, align 4
  %45 = icmp slt i32 %44, 1000
  br i1 %45, label %46, label %59

46:                                               ; preds = %43
  %47 = load i32, i32* %2, align 4
  %48 = icmp sge i32 %47, 100
  br i1 %48, label %49, label %59

49:                                               ; preds = %46
  %50 = getelementptr inbounds [5 x i32], [5 x i32]* %3, i64 0, i64 0
  %51 = load i32, i32* %50, align 16
  %52 = call dereferenceable(272) %"class.std::basic_ostream"* @_ZNSolsEi(%"class.std::basic_ostream"* @_ZSt4cout, i32 %51)
  %53 = getelementptr inbounds [5 x i32], [5 x i32]* %3, i64 0, i64 1
  %54 = load i32, i32* %53, align 4
  %55 = call dereferenceable(272) %"class.std::basic_ostream"* @_ZNSolsEi(%"class.std::basic_ostream"* %52, i32 %54)
  %56 = getelementptr inbounds [5 x i32], [5 x i32]* %3, i64 0, i64 2
  %57 = load i32, i32* %56, align 8
  %58 = call dereferenceable(272) %"class.std::basic_ostream"* @_ZNSolsEi(%"class.std::basic_ostream"* %55, i32 %57)
  br label %95

59:                                               ; preds = %46, %43
  %60 = load i32, i32* %2, align 4
  %61 = icmp slt i32 %60, 10000
  br i1 %61, label %62, label %78

62:                                               ; preds = %59
  %63 = load i32, i32* %2, align 4
  %64 = icmp sge i32 %63, 1000
  br i1 %64, label %65, label %78

65:                                               ; preds = %62
  %66 = getelementptr inbounds [5 x i32], [5 x i32]* %3, i64 0, i64 0
  %67 = load i32, i32* %66, align 16
  %68 = call dereferenceable(272) %"class.std::basic_ostream"* @_ZNSolsEi(%"class.std::basic_ostream"* @_ZSt4cout, i32 %67)
  %69 = getelementptr inbounds [5 x i32], [5 x i32]* %3, i64 0, i64 1
  %70 = load i32, i32* %69, align 4
  %71 = call dereferenceable(272) %"class.std::basic_ostream"* @_ZNSolsEi(%"class.std::basic_ostream"* %68, i32 %70)
  %72 = getelementptr inbounds [5 x i32], [5 x i32]* %3, i64 0, i64 2
  %73 = load i32, i32* %72, align 8
  %74 = call dereferenceable(272) %"class.std::basic_ostream"* @_ZNSolsEi(%"class.std::basic_ostream"* %71, i32 %73)
  %75 = getelementptr inbounds [5 x i32], [5 x i32]* %3, i64 0, i64 3
  %76 = load i32, i32* %75, align 4
  %77 = call dereferenceable(272) %"class.std::basic_ostream"* @_ZNSolsEi(%"class.std::basic_ostream"* %74, i32 %76)
  br label %94

78:                                               ; preds = %62, %59
  %79 = getelementptr inbounds [5 x i32], [5 x i32]* %3, i64 0, i64 0
  %80 = load i32, i32* %79, align 16
  %81 = call dereferenceable(272) %"class.std::basic_ostream"* @_ZNSolsEi(%"class.std::basic_ostream"* @_ZSt4cout, i32 %80)
  %82 = getelementptr inbounds [5 x i32], [5 x i32]* %3, i64 0, i64 1
  %83 = load i32, i32* %82, align 4
  %84 = call dereferenceable(272) %"class.std::basic_ostream"* @_ZNSolsEi(%"class.std::basic_ostream"* %81, i32 %83)
  %85 = getelementptr inbounds [5 x i32], [5 x i32]* %3, i64 0, i64 2
  %86 = load i32, i32* %85, align 8
  %87 = call dereferenceable(272) %"class.std::basic_ostream"* @_ZNSolsEi(%"class.std::basic_ostream"* %84, i32 %86)
  %88 = getelementptr inbounds [5 x i32], [5 x i32]* %3, i64 0, i64 3
  %89 = load i32, i32* %88, align 4
  %90 = call dereferenceable(272) %"class.std::basic_ostream"* @_ZNSolsEi(%"class.std::basic_ostream"* %87, i32 %89)
  %91 = getelementptr inbounds [5 x i32], [5 x i32]* %3, i64 0, i64 4
  %92 = load i32, i32* %91, align 16
  %93 = call dereferenceable(272) %"class.std::basic_ostream"* @_ZNSolsEi(%"class.std::basic_ostream"* %90, i32 %92)
  br label %94

94:                                               ; preds = %78, %65
  br label %95

95:                                               ; preds = %94, %49
  br label %96

96:                                               ; preds = %95, %36
  br label %97

97:                                               ; preds = %96, %26
  %98 = load i32, i32* %1, align 4
  ret i32 %98
}

declare dso_local dereferenceable(280) %"class.std::basic_istream"* @_ZNSirsERi(%"class.std::basic_istream"*, i32* dereferenceable(4)) #1

declare dso_local dereferenceable(272) %"class.std::basic_ostream"* @_ZNSolsEi(%"class.std::basic_ostream"*, i32) #1

; Function Attrs: noinline uwtable
define internal void @_GLOBAL__sub_I_1344.cpp() #0 section ".text.startup" {
  call void @__cxx_global_var_init()
  ret void
}


!llvm.module.flags = !{!0}
!llvm.ident = !{!1}

!0 = !{i32 1, !"wchar_size", i32 4}
!1 = !{!"clang version 10.0.0-4ubuntu1 "}
